; Function Attrs: mustprogress uwtable
define void @_ZNK6casadi7Options4dispERSo(ptr noundef nonnull readonly align 8 dereferenceable(72) %0, ptr noundef nonnull align 8 dereferenceable(8) %1) local_unnamed_addr #4 align 2 {
  %3 = load ptr, ptr %0, align 8
  %4 = getelementptr inbounds i8, ptr %0, i64 8
  %5 = load ptr, ptr %4, align 8
  %.not18 = icmp eq ptr %3, %5
  br i1 %.not18, label %._crit_edge, label %.lr.ph

.lr.ph:                                           ; preds = %2, %.lr.ph
  %.sroa.014.019 = phi ptr [ %7, %.lr.ph ], [ %3, %2 ]
  %6 = load ptr, ptr %.sroa.014.019, align 8
  tail call void @_ZNK6casadi7Options4dispERSo(ptr noundef nonnull align 8 dereferenceable(72) %6, ptr noundef nonnull align 8 dereferenceable(8) %1)
  %7 = getelementptr inbounds i8, ptr %.sroa.014.019, i64 8
  %.not = icmp eq ptr %7, %5
  br i1 %.not, label %._crit_edge, label %.lr.ph

._crit_edge:                                      ; preds = %.lr.ph, %2
  %8 = getelementptr inbounds i8, ptr %0, i64 48
  %9 = load ptr, ptr %8, align 8
  %10 = getelementptr inbounds i8, ptr %0, i64 32
  %.not1720 = icmp eq ptr %9, %10
  br i1 %.not1720, label %._crit_edge24, label %.lr.ph23

.lr.ph23:                                         ; preds = %._crit_edge, %.lr.ph23
  %.sroa.010.021 = phi ptr [ %13, %.lr.ph23 ], [ %9, %._crit_edge ]
  %11 = getelementptr inbounds i8, ptr %.sroa.010.021, i64 32
  %12 = getelementptr inbounds i8, ptr %.sroa.010.021, i64 64
  tail call void @_ZNK6casadi7Options5Entry4dispERKNSt7__cxx1112basic_stringIcSt11char_traitsIcESaIcEEERSo(ptr noundef nonnull align 8 dereferenceable(40) %12, ptr noundef nonnull align 8 dereferenceable(32) %11, ptr noundef nonnull align 8 dereferenceable(8) %1)
  %13 = tail call noundef ptr @_ZSt18_Rb_tree_incrementPKSt18_Rb_tree_node_base(ptr noundef %.sroa.010.021) #21
  %.not17 = icmp eq ptr %13, %10
  br i1 %.not17, label %._crit_edge24, label %.lr.ph23

._crit_edge24:                                    ; preds = %.lr.ph23, %._crit_edge
  ret void
}